; Function Attrs: mustprogress uwtable
define void @_ZN6icu_7715RegexStaticSets11initGlobalsEP10UErrorCode(ptr noundef %0) local_unnamed_addr #0 align 2 personality ptr @__gxx_personality_v0 {
  %2 = load i32, ptr %0, align 4, !tbaa !31
  %3 = icmp slt i32 %2, 1
  br i1 %3, label %4, label %_ZN6icu_7713umtx_initOnceERNS_9UInitOnceEPFvR10UErrorCodeES3_.exit

4:                                                ; preds = %1
  %5 = load atomic i32, ptr @_ZN6icu_7719gStaticSetsInitOnceE acquire, align 4
  %.not11.i = icmp eq i32 %5, 2
  br i1 %.not11.i, label %22, label %6

6:                                                ; preds = %4
  %7 = tail call noundef signext i8 @_ZN6icu_7720umtx_initImplPreInitERNS_9UInitOnceE(ptr noundef nonnull align 4 dereferenceable(8) @_ZN6icu_7719gStaticSetsInitOnceE)
  %.not12.i = icmp eq i8 %7, 0
  br i1 %.not12.i, label %22, label %8

8:                                                ; preds = %6
  tail call void @ucln_i18n_registerCleanup_77(i32 noundef 6, ptr noundef nonnull @_ZN6icu_77L13regex_cleanupEv)
  %9 = tail call noundef ptr @_ZN6icu_777UMemorynwEm(i64 noundef 3840) #8
  %10 = icmp eq ptr %9, null
  br i1 %10, label %.thread.i, label %11

11:                                               ; preds = %8
  invoke void @_ZN6icu_7715RegexStaticSetsC1EP10UErrorCode(ptr noundef nonnull align 8 dereferenceable(3840) %9, ptr noundef nonnull align 4 dereferenceable(4) %0)
          to label %12 unwind label %17

12:                                               ; preds = %11
  store ptr %9, ptr @_ZN6icu_7715RegexStaticSets11gStaticSetsE, align 8, !tbaa !33
  %13 = load i32, ptr %0, align 4, !tbaa !31
  %14 = icmp slt i32 %13, 1
  br i1 %14, label %_ZN6icu_77L14initStaticSetsER10UErrorCode.exit, label %19

.thread.i:                                        ; preds = %8
  store ptr null, ptr @_ZN6icu_7715RegexStaticSets11gStaticSetsE, align 8, !tbaa !33
  %15 = load i32, ptr %0, align 4, !tbaa !31
  %16 = icmp slt i32 %15, 1
  br i1 %16, label %.thread12.i, label %_ZN6icu_77L14initStaticSetsER10UErrorCode.exit

17:                                               ; preds = %11
  %18 = landingpad { ptr, i32 }
          cleanup
  tail call void @_ZN6icu_777UMemorydlEPv(ptr noundef nonnull %9) #8
  resume { ptr, i32 } %18

19:                                               ; preds = %12
  tail call void @_ZN6icu_7715RegexStaticSetsD1Ev(ptr noundef nonnull align 8 dereferenceable(3840) %9) #8
  tail call void @_ZN6icu_777UMemorydlEPv(ptr noundef nonnull %9) #8
  %.pre.pre.i = load i32, ptr %0, align 4, !tbaa !31
  %20 = icmp sgt i32 %.pre.pre.i, 0
  store ptr null, ptr @_ZN6icu_7715RegexStaticSets11gStaticSetsE, align 8, !tbaa !33
  br i1 %20, label %_ZN6icu_77L14initStaticSetsER10UErrorCode.exit, label %.thread12.i

.thread12.i:                                      ; preds = %19, %.thread.i
  store i32 7, ptr %0, align 4, !tbaa !31
  br label %_ZN6icu_77L14initStaticSetsER10UErrorCode.exit

_ZN6icu_77L14initStaticSetsER10UErrorCode.exit:   ; preds = %12, %.thread.i, %19, %.thread12.i
  %21 = phi i32 [ %13, %12 ], [ %15, %.thread.i ], [ %.pre.pre.i, %19 ], [ 7, %.thread12.i ]
  store i32 %21, ptr getelementptr inbounds nuw (i8, ptr @_ZN6icu_7719gStaticSetsInitOnceE, i64 4), align 4, !tbaa !35
  tail call void @_ZN6icu_7721umtx_initImplPostInitERNS_9UInitOnceE(ptr noundef nonnull align 4 dereferenceable(8) @_ZN6icu_7719gStaticSetsInitOnceE)
  br label %_ZN6icu_7713umtx_initOnceERNS_9UInitOnceEPFvR10UErrorCodeES3_.exit

22:                                               ; preds = %6, %4
  %23 = load i32, ptr getelementptr inbounds nuw (i8, ptr @_ZN6icu_7719gStaticSetsInitOnceE, i64 4), align 4, !tbaa !35
  %24 = icmp slt i32 %23, 1
  br i1 %24, label %_ZN6icu_7713umtx_initOnceERNS_9UInitOnceEPFvR10UErrorCodeES3_.exit, label %25

25:                                               ; preds = %22
  store i32 %23, ptr %0, align 4, !tbaa !31
  br label %_ZN6icu_7713umtx_initOnceERNS_9UInitOnceEPFvR10UErrorCodeES3_.exit

_ZN6icu_7713umtx_initOnceERNS_9UInitOnceEPFvR10UErrorCodeES3_.exit: ; preds = %1, %_ZN6icu_77L14initStaticSetsER10UErrorCode.exit, %22, %25
  ret void
}